; Function Attrs: mustprogress uwtable
define void @_ZN4pkpy4Dict7_rehashEv(ptr noundef nonnull align 8 dereferenceable(48) %0) local_unnamed_addr #7 align 2 {
  %2 = alloca i8, align 1
  %3 = alloca i32, align 4
  %4 = getelementptr inbounds i8, ptr %0, i64 32
  %5 = load ptr, ptr %4, align 8
  %6 = getelementptr inbounds i8, ptr %0, i64 40
  %7 = load ptr, ptr %6, align 8
  %8 = getelementptr inbounds i8, ptr %0, i64 24
  %9 = load i32, ptr %8, align 8
  %10 = getelementptr inbounds i8, ptr %0, i64 8
  %11 = load i32, ptr %10, align 8
  %12 = shl nsw i32 %11, 2
  store i32 %12, ptr %10, align 8
  %13 = add nsw i32 %12, -1
  %14 = getelementptr inbounds i8, ptr %0, i64 12
  store i32 %13, ptr %14, align 4
  %15 = getelementptr inbounds i8, ptr %0, i64 16
  store i32 0, ptr %15, align 8
  %16 = sitofp i32 %12 to float
  %17 = tail call float @llvm.fmuladd.f32(float %16, float 0x3FE570A3E0000000, float 5.000000e-01)
  %18 = fptosi float %17 to i32
  %19 = getelementptr inbounds i8, ptr %0, i64 20
  store i32 %18, ptr %19, align 4
  store i32 -1, ptr %8, align 8
  %20 = getelementptr inbounds i8, ptr %0, i64 28
  store i32 -1, ptr %20, align 4
  %21 = sext i32 %12 to i64
  %22 = shl nsw i64 %21, 4
  %23 = tail call noundef ptr @_ZN4pkpy13pool128_allocEm(i64 noundef %22) #16
  store ptr %23, ptr %4, align 8
  %24 = load i32, ptr %10, align 8
  %25 = sext i32 %24 to i64
  %26 = shl nsw i64 %25, 4
  tail call void @llvm.memset.p0.i64(ptr align 8 %23, i8 0, i64 %26, i1 false)
  %27 = load i32, ptr %10, align 8
  %28 = sext i32 %27 to i64
  %29 = shl nsw i64 %28, 3
  %30 = tail call noundef ptr @_ZN4pkpy12pool64_allocEm(i64 noundef %29) #16
  store ptr %30, ptr %6, align 8
  %31 = load i32, ptr %10, align 8
  %32 = sext i32 %31 to i64
  %33 = shl nsw i64 %32, 3
  tail call void @llvm.memset.p0.i64(ptr align 4 %30, i8 -1, i64 %33, i1 false)
  %.not10 = icmp eq i32 %9, -1
  br i1 %.not10, label %._crit_edge, label %.lr.ph

.lr.ph:                                           ; preds = %1, %_ZN4pkpy4Dict3setEPNS_8PyObjectES2_.exit
  %.011 = phi i32 [ %67, %_ZN4pkpy4Dict3setEPNS_8PyObjectES2_.exit ], [ %9, %1 ]
  %34 = sext i32 %.011 to i64
  %35 = getelementptr inbounds %"struct.pkpy::Dict::Item", ptr %5, i64 %34
  %36 = load ptr, ptr %35, align 8
  %37 = getelementptr inbounds i8, ptr %35, i64 8
  %38 = load ptr, ptr %37, align 8
  call void @llvm.lifetime.start.p0(i64 1, ptr nonnull %2)
  call void @llvm.lifetime.start.p0(i64 4, ptr nonnull %3)
  %39 = load i32, ptr %15, align 8
  %40 = load i32, ptr %19, align 4
  %.not.i = icmp slt i32 %39, %40
  br i1 %.not.i, label %42, label %41

41:                                               ; preds = %.lr.ph
  call void @_ZN4pkpy4Dict7_rehashEv(ptr noundef nonnull align 8 dereferenceable(48) %0)
  br label %42

42:                                               ; preds = %41, %.lr.ph
  call void @_ZNK4pkpy4Dict8_probe_1EPNS_8PyObjectERbRi(ptr noundef nonnull align 8 dereferenceable(48) %0, ptr noundef %36, ptr noundef nonnull align 1 dereferenceable(1) %2, ptr noundef nonnull align 4 dereferenceable(4) %3)
  %43 = load i8, ptr %2, align 1
  %44 = trunc i8 %43 to i1
  %.pre = load i32, ptr %3, align 4
  br i1 %44, label %_ZN4pkpy4Dict3setEPNS_8PyObjectES2_.exit, label %45

45:                                               ; preds = %42
  %46 = load i32, ptr %15, align 8
  %47 = add nsw i32 %46, 1
  store i32 %47, ptr %15, align 8
  %48 = load ptr, ptr %4, align 8
  %49 = sext i32 %.pre to i64
  %50 = getelementptr inbounds %"struct.pkpy::Dict::Item", ptr %48, i64 %49
  store ptr %36, ptr %50, align 8
  %51 = load i32, ptr %15, align 8
  %52 = icmp eq i32 %51, 1
  br i1 %52, label %53, label %54

53:                                               ; preds = %45
  store i32 %.pre, ptr %8, align 8
  br label %_ZN4pkpy4Dict3setEPNS_8PyObjectES2_.exit.sink.split

54:                                               ; preds = %45
  %55 = load i32, ptr %20, align 4
  %56 = load ptr, ptr %6, align 8
  %57 = getelementptr inbounds %"struct.pkpy::Dict::ItemNode", ptr %56, i64 %49
  store i32 %55, ptr %57, align 4
  %58 = load i32, ptr %3, align 4
  %59 = load ptr, ptr %6, align 8
  %60 = sext i32 %55 to i64
  %61 = getelementptr inbounds %"struct.pkpy::Dict::ItemNode", ptr %59, i64 %60, i32 1
  store i32 %58, ptr %61, align 4
  br label %_ZN4pkpy4Dict3setEPNS_8PyObjectES2_.exit.sink.split

_ZN4pkpy4Dict3setEPNS_8PyObjectES2_.exit.sink.split: ; preds = %54, %53
  %.pre.sink = phi i32 [ %.pre, %53 ], [ %58, %54 ]
  store i32 %.pre.sink, ptr %20, align 4
  br label %_ZN4pkpy4Dict3setEPNS_8PyObjectES2_.exit

_ZN4pkpy4Dict3setEPNS_8PyObjectES2_.exit:         ; preds = %_ZN4pkpy4Dict3setEPNS_8PyObjectES2_.exit.sink.split, %42
  %62 = phi i32 [ %.pre, %42 ], [ %.pre.sink, %_ZN4pkpy4Dict3setEPNS_8PyObjectES2_.exit.sink.split ]
  %63 = load ptr, ptr %4, align 8
  %64 = sext i32 %62 to i64
  %65 = getelementptr inbounds %"struct.pkpy::Dict::Item", ptr %63, i64 %64, i32 1
  store ptr %38, ptr %65, align 8
  call void @llvm.lifetime.end.p0(i64 1, ptr nonnull %2)
  call void @llvm.lifetime.end.p0(i64 4, ptr nonnull %3)
  %66 = getelementptr inbounds %"struct.pkpy::Dict::ItemNode", ptr %7, i64 %34, i32 1
  %67 = load i32, ptr %66, align 4
  %.not = icmp eq i32 %67, -1
  br i1 %.not, label %._crit_edge, label %.lr.ph, !llvm.loop !4

._crit_edge:                                      ; preds = %_ZN4pkpy4Dict3setEPNS_8PyObjectES2_.exit, %1
  call void @_ZN4pkpy15pool128_deallocEPv(ptr noundef %5) #16
  call void @_ZN4pkpy14pool64_deallocEPv(ptr noundef %7) #16
  ret void
}